target datalayout = "e-m:e-p270:32:32-p271:32:32-p272:64:64-i64:64-i128:128-f80:128-n8:16:32:64-S128"
target triple = "x86_64-pc-linux-gnu"

%"class.OpenColorIO_v2_5dev::FileRules::Impl" = type { %"class.std::vector" }
%"class.std::vector" = type { %"struct.std::_Vector_base" }
%"struct.std::_Vector_base" = type { %"struct.std::_Vector_base<std::shared_ptr<OpenColorIO_v2_5dev::FileRule>, std::allocator<std::shared_ptr<OpenColorIO_v2_5dev::FileRule>>>::_Vector_impl" }
%"struct.std::_Vector_base<std::shared_ptr<OpenColorIO_v2_5dev::FileRule>, std::allocator<std::shared_ptr<OpenColorIO_v2_5dev::FileRule>>>::_Vector_impl" = type { %"struct.std::_Vector_base<std::shared_ptr<OpenColorIO_v2_5dev::FileRule>, std::allocator<std::shared_ptr<OpenColorIO_v2_5dev::FileRule>>>::_Vector_impl_data" }
%"struct.std::_Vector_base<std::shared_ptr<OpenColorIO_v2_5dev::FileRule>, std::allocator<std::shared_ptr<OpenColorIO_v2_5dev::FileRule>>>::_Vector_impl_data" = type { ptr, ptr, ptr }
%"class.std::__shared_count" = type { ptr }
%"class.__gnu_cxx::__normal_iterator" = type { ptr }
%"class.std::shared_ptr.0" = type { %"class.std::__shared_ptr.1" }
%"class.std::__shared_ptr.1" = type { ptr, %"class.std::__shared_count" }
%"class.OpenColorIO_v2_5dev::FileRule" = type <{ %"class.OpenColorIO_v2_5dev::CustomKeysContainer", %"class.std::__cxx11::basic_string", %"class.std::__cxx11::basic_string", %"class.std::__cxx11::basic_string", %"class.std::__cxx11::basic_string", %"class.std::__cxx11::basic_string", i32, [4 x i8] }>
%"class.OpenColorIO_v2_5dev::CustomKeysContainer" = type { %"class.std::map" }
%"class.std::map" = type { %"class.std::_Rb_tree" }
%"class.std::_Rb_tree" = type { %"struct.std::_Rb_tree<std::__cxx11::basic_string<char>, std::pair<const std::__cxx11::basic_string<char>, std::__cxx11::basic_string<char>>, std::_Select1st<std::pair<const std::__cxx11::basic_string<char>, std::__cxx11::basic_string<char>>>, std::less<std::__cxx11::basic_string<char>>>::_Rb_tree_impl" }
%"struct.std::_Rb_tree<std::__cxx11::basic_string<char>, std::pair<const std::__cxx11::basic_string<char>, std::__cxx11::basic_string<char>>, std::_Select1st<std::pair<const std::__cxx11::basic_string<char>, std::__cxx11::basic_string<char>>>, std::less<std::__cxx11::basic_string<char>>>::_Rb_tree_impl" = type { [8 x i8], %"struct.std::_Rb_tree_header" }
%"struct.std::_Rb_tree_header" = type { %"struct.std::_Rb_tree_node_base", i64 }
%"struct.std::_Rb_tree_node_base" = type { i32, ptr, ptr, ptr }
%"class.std::__cxx11::basic_string" = type { %"struct.std::__cxx11::basic_string<char>::_Alloc_hider", i64, %union.anon }
%"struct.std::__cxx11::basic_string<char>::_Alloc_hider" = type { ptr }
%union.anon = type { i64, [8 x i8] }

; Function Attrs: mustprogress nounwind uwtable
define linkonce_odr hidden void @_ZN9__gnu_cxx17__normal_iteratorIPKSt10shared_ptrIN19OpenColorIO_v2_5dev8FileRuleEESt6vectorIS4_SaIS4_EEEC2ERKS6_(ptr noundef nonnull align 8 dereferenceable(8) %0, ptr noundef nonnull align 8 dereferenceable(8) %1) unnamed_addr #3 comdat align 2 {
  %3 = alloca ptr, align 8
  %4 = alloca ptr, align 8
  store ptr %0, ptr %3, align 8, !tbaa !57
  store ptr %1, ptr %4, align 8, !tbaa !1420
  %5 = load ptr, ptr %3, align 8
  %6 = getelementptr inbounds nuw %"class.__gnu_cxx::__normal_iterator", ptr %5, i32 0, i32 0
  %7 = load ptr, ptr %4, align 8, !tbaa !1420
  %8 = load ptr, ptr %7, align 8, !tbaa !21
  store ptr %8, ptr %6, align 8, !tbaa !59
  ret void
}

; Function Attrs: mustprogress nounwind uwtable
define available_externally noundef ptr @_ZNKSt7__cxx1112basic_stringIcSt11char_traitsIcESaIcEE7_M_dataEv(ptr noundef nonnull align 8 dereferenceable(32) %0) #3 align 2 {
  %2 = alloca ptr, align 8
  store ptr %0, ptr %2, align 8, !tbaa !68
  %3 = load ptr, ptr %2, align 8
  %4 = getelementptr inbounds nuw %"class.std::__cxx11::basic_string", ptr %3, i32 0, i32 0
  %5 = getelementptr inbounds nuw %"struct.std::__cxx11::basic_string<char>::_Alloc_hider", ptr %4, i32 0, i32 0
  %6 = load ptr, ptr %5, align 8, !tbaa !172
  ret ptr %6
}

; Function Attrs: mustprogress nounwind uwtable
define linkonce_odr hidden noundef ptr @_ZNKSt12__shared_ptrIN19OpenColorIO_v2_5dev8FileRuleELN9__gnu_cxx12_Lock_policyE2EE3getEv(ptr noundef nonnull align 8 dereferenceable(16) %0) #3 comdat align 2 {
  %2 = alloca ptr, align 8
  store ptr %0, ptr %2, align 8, !tbaa !1318
  %3 = load ptr, ptr %2, align 8
  %4 = getelementptr inbounds nuw %"class.std::__shared_ptr.1", ptr %3, i32 0, i32 0
  %5 = load ptr, ptr %4, align 8, !tbaa !1320
  ret ptr %5
}

; Function Attrs: mustprogress nounwind uwtable
define linkonce_odr hidden noundef nonnull align 8 dereferenceable(16) ptr @_ZNK9__gnu_cxx17__normal_iteratorIPKSt10shared_ptrIN19OpenColorIO_v2_5dev8FileRuleEESt6vectorIS4_SaIS4_EEEdeEv(ptr noundef nonnull align 8 dereferenceable(8) %0) #3 comdat align 2 {
  %2 = alloca ptr, align 8
  store ptr %0, ptr %2, align 8, !tbaa !57
  %3 = load ptr, ptr %2, align 8
  %4 = getelementptr inbounds nuw %"class.__gnu_cxx::__normal_iterator", ptr %3, i32 0, i32 0
  %5 = load ptr, ptr %4, align 8, !tbaa !59
  ret ptr %5
}

; Function Attrs: mustprogress nounwind uwtable
define linkonce_odr hidden ptr @_ZNK9__gnu_cxx17__normal_iteratorIPKSt10shared_ptrIN19OpenColorIO_v2_5dev8FileRuleEESt6vectorIS4_SaIS4_EEEmiEl(ptr noundef nonnull align 8 dereferenceable(8) %0, i64 noundef %1) #3 comdat align 2 {
  %3 = alloca %"class.__gnu_cxx::__normal_iterator", align 8
  %4 = alloca ptr, align 8
  %5 = alloca i64, align 8
  %6 = alloca ptr, align 8
  store ptr %0, ptr %4, align 8, !tbaa !57
  store i64 %1, ptr %5, align 8, !tbaa !61
  %7 = load ptr, ptr %4, align 8
  call void @llvm.lifetime.start.p0(i64 8, ptr %6) #21
  %8 = getelementptr inbounds nuw %"class.__gnu_cxx::__normal_iterator", ptr %7, i32 0, i32 0
  %9 = load ptr, ptr %8, align 8, !tbaa !59
  %10 = load i64, ptr %5, align 8, !tbaa !61
  %11 = sub i64 0, %10
  %12 = getelementptr inbounds %"class.std::shared_ptr.0", ptr %9, i64 %11
  store ptr %12, ptr %6, align 8, !tbaa !21
  call void @_ZN9__gnu_cxx17__normal_iteratorIPKSt10shared_ptrIN19OpenColorIO_v2_5dev8FileRuleEESt6vectorIS4_SaIS4_EEEC2ERKS6_(ptr noundef nonnull align 8 dereferenceable(8) %3, ptr noundef nonnull align 8 dereferenceable(8) %6) #21
  call void @llvm.lifetime.end.p0(i64 8, ptr %6) #21
  %13 = getelementptr inbounds nuw %"class.__gnu_cxx::__normal_iterator", ptr %3, i32 0, i32 0
  %14 = load ptr, ptr %13, align 8
  ret ptr %14
}

; Function Attrs: mustprogress nounwind uwtable
define linkonce_odr hidden ptr @_ZNKSt6vectorISt10shared_ptrIN19OpenColorIO_v2_5dev8FileRuleEESaIS3_EE3endEv(ptr noundef nonnull align 8 dereferenceable(24) %0) #3 comdat align 2 {
  %2 = alloca %"class.__gnu_cxx::__normal_iterator", align 8
  %3 = alloca ptr, align 8
  store ptr %0, ptr %3, align 8, !tbaa !19
  %4 = load ptr, ptr %3, align 8
  %5 = getelementptr inbounds nuw %"struct.std::_Vector_base", ptr %4, i32 0, i32 0
  %6 = getelementptr inbounds nuw %"struct.std::_Vector_base<std::shared_ptr<OpenColorIO_v2_5dev::FileRule>, std::allocator<std::shared_ptr<OpenColorIO_v2_5dev::FileRule>>>::_Vector_impl_data", ptr %5, i32 0, i32 1
  call void @_ZN9__gnu_cxx17__normal_iteratorIPKSt10shared_ptrIN19OpenColorIO_v2_5dev8FileRuleEESt6vectorIS4_SaIS4_EEEC2ERKS6_(ptr noundef nonnull align 8 dereferenceable(8) %2, ptr noundef nonnull align 8 dereferenceable(8) %6) #21
  %7 = getelementptr inbounds nuw %"class.__gnu_cxx::__normal_iterator", ptr %2, i32 0, i32 0
  %8 = load ptr, ptr %7, align 8
  ret ptr %8
}

; Function Attrs: mustprogress nounwind uwtable
define available_externally noundef ptr @_ZNKSt7__cxx1112basic_stringIcSt11char_traitsIcESaIcEE5c_strEv(ptr noundef nonnull align 8 dereferenceable(32) %0) #3 align 2 {
  %2 = alloca ptr, align 8
  store ptr %0, ptr %2, align 8, !tbaa !68
  %3 = load ptr, ptr %2, align 8
  %4 = call noundef ptr @_ZNKSt7__cxx1112basic_stringIcSt11char_traitsIcESaIcEE7_M_dataEv(ptr noundef nonnull align 8 dereferenceable(32) %3)
  ret ptr %4
}

; Function Attrs: mustprogress nounwind uwtable
define linkonce_odr hidden noundef ptr @_ZNKSt19__shared_ptr_accessIN19OpenColorIO_v2_5dev8FileRuleELN9__gnu_cxx12_Lock_policyE2ELb0ELb0EE6_M_getEv(ptr noundef nonnull align 1 dereferenceable(1) %0) #3 comdat align 2 {
  %2 = alloca ptr, align 8
  store ptr %0, ptr %2, align 8, !tbaa !32
  %3 = load ptr, ptr %2, align 8
  %4 = call noundef ptr @_ZNKSt12__shared_ptrIN19OpenColorIO_v2_5dev8FileRuleELN9__gnu_cxx12_Lock_policyE2EE3getEv(ptr noundef nonnull align 8 dereferenceable(16) %3) #21
  ret ptr %4
}

; Function Attrs: mustprogress nounwind uwtable
define linkonce_odr hidden noundef nonnull align 8 dereferenceable(16) ptr @_ZNKSt6vectorISt10shared_ptrIN19OpenColorIO_v2_5dev8FileRuleEESaIS3_EE4backEv(ptr noundef nonnull align 8 dereferenceable(24) %0) #3 comdat align 2 {
  %2 = alloca ptr, align 8
  %3 = alloca %"class.__gnu_cxx::__normal_iterator", align 8
  %4 = alloca %"class.__gnu_cxx::__normal_iterator", align 8
  store ptr %0, ptr %2, align 8, !tbaa !19
  %5 = load ptr, ptr %2, align 8
  call void @llvm.lifetime.start.p0(i64 8, ptr %3) #21
  call void @llvm.lifetime.start.p0(i64 8, ptr %4) #21
  %6 = call ptr @_ZNKSt6vectorISt10shared_ptrIN19OpenColorIO_v2_5dev8FileRuleEESaIS3_EE3endEv(ptr noundef nonnull align 8 dereferenceable(24) %5) #21
  %7 = getelementptr inbounds nuw %"class.__gnu_cxx::__normal_iterator", ptr %4, i32 0, i32 0
  store ptr %6, ptr %7, align 8
  %8 = call ptr @_ZNK9__gnu_cxx17__normal_iteratorIPKSt10shared_ptrIN19OpenColorIO_v2_5dev8FileRuleEESt6vectorIS4_SaIS4_EEEmiEl(ptr noundef nonnull align 8 dereferenceable(8) %4, i64 noundef 1) #21
  %9 = getelementptr inbounds nuw %"class.__gnu_cxx::__normal_iterator", ptr %3, i32 0, i32 0
  store ptr %8, ptr %9, align 8
  %10 = call noundef nonnull align 8 dereferenceable(16) ptr @_ZNK9__gnu_cxx17__normal_iteratorIPKSt10shared_ptrIN19OpenColorIO_v2_5dev8FileRuleEESt6vectorIS4_SaIS4_EEEdeEv(ptr noundef nonnull align 8 dereferenceable(8) %3) #21
  call void @llvm.lifetime.end.p0(i64 8, ptr %4) #21
  call void @llvm.lifetime.end.p0(i64 8, ptr %3) #21
  ret ptr %10
}

; Function Attrs: mustprogress nounwind uwtable
define linkonce_odr hidden noundef ptr @_ZNK19OpenColorIO_v2_5dev8FileRule13getColorSpaceEv(ptr noundef nonnull align 8 dereferenceable(212) %0) #3 comdat align 2 {
  %2 = alloca ptr, align 8
  store ptr %0, ptr %2, align 8, !tbaa !34
  %3 = load ptr, ptr %2, align 8
  %4 = getelementptr inbounds nuw %"class.OpenColorIO_v2_5dev::FileRule", ptr %3, i32 0, i32 2
  %5 = call noundef ptr @_ZNKSt7__cxx1112basic_stringIcSt11char_traitsIcESaIcEE5c_strEv(ptr noundef nonnull align 8 dereferenceable(32) %4) #21
  ret ptr %5
}

; Function Attrs: mustprogress nounwind uwtable
define linkonce_odr hidden noundef ptr @_ZNKSt19__shared_ptr_accessIN19OpenColorIO_v2_5dev8FileRuleELN9__gnu_cxx12_Lock_policyE2ELb0ELb0EEptEv(ptr noundef nonnull align 1 dereferenceable(1) %0) #3 comdat align 2 {
  %2 = alloca ptr, align 8
  store ptr %0, ptr %2, align 8, !tbaa !32
  %3 = load ptr, ptr %2, align 8
  %4 = call noundef ptr @_ZNKSt19__shared_ptr_accessIN19OpenColorIO_v2_5dev8FileRuleELN9__gnu_cxx12_Lock_policyE2ELb0ELb0EE6_M_getEv(ptr noundef nonnull align 1 dereferenceable(1) %3) #21
  ret ptr %4
}

; Function Attrs: mustprogress nounwind uwtable
define linkonce_odr hidden noundef nonnull align 8 dereferenceable(16) ptr @_ZNKSt6vectorISt10shared_ptrIN19OpenColorIO_v2_5dev8FileRuleEESaIS3_EEixEm(ptr noundef nonnull align 8 dereferenceable(24) %0, i64 noundef %1) #3 comdat align 2 {
  %3 = alloca ptr, align 8
  %4 = alloca i64, align 8
  store ptr %0, ptr %3, align 8, !tbaa !19
  store i64 %1, ptr %4, align 8, !tbaa !61
  %5 = load ptr, ptr %3, align 8
  %6 = getelementptr inbounds nuw %"struct.std::_Vector_base", ptr %5, i32 0, i32 0
  %7 = getelementptr inbounds nuw %"struct.std::_Vector_base<std::shared_ptr<OpenColorIO_v2_5dev::FileRule>, std::allocator<std::shared_ptr<OpenColorIO_v2_5dev::FileRule>>>::_Vector_impl_data", ptr %6, i32 0, i32 0
  %8 = load ptr, ptr %7, align 8, !tbaa !56
  %9 = load i64, ptr %4, align 8, !tbaa !61
  %10 = getelementptr inbounds nuw %"class.std::shared_ptr.0", ptr %8, i64 %9
  ret ptr %10
}

; Function Attrs: mustprogress uwtable
define noundef ptr @_ZNK19OpenColorIO_v2_5dev9FileRules4Impl19getRuleFromFilepathERKNS_6ConfigEPKcRm(ptr noundef nonnull align 8 dereferenceable(24) %0, ptr noundef nonnull align 8 dereferenceable(8) %1, ptr noundef %2, ptr noundef nonnull align 8 dereferenceable(8) %3) #0 align 2 {
  %5 = alloca ptr, align 8
  %6 = alloca ptr, align 8
  %7 = alloca ptr, align 8
  %8 = alloca ptr, align 8
  %9 = alloca ptr, align 8
  %10 = alloca i64, align 8
  %11 = alloca i64, align 8
  %12 = alloca i32, align 4
  store ptr %0, ptr %6, align 8, !tbaa !13
  store ptr %1, ptr %7, align 8, !tbaa !74
  store ptr %2, ptr %8, align 8, !tbaa !25
  store ptr %3, ptr %9, align 8, !tbaa !76
  %13 = load ptr, ptr %6, align 8
  call void @llvm.lifetime.start.p0(i64 8, ptr %10) #21
  %14 = getelementptr inbounds nuw %"class.OpenColorIO_v2_5dev::FileRules::Impl", ptr %13, i32 0, i32 0
  %15 = call noundef i64 @_ZNKSt6vectorISt10shared_ptrIN19OpenColorIO_v2_5dev8FileRuleEESaIS3_EE4sizeEv(ptr noundef nonnull align 8 dereferenceable(24) %14) #21
  store i64 %15, ptr %10, align 8, !tbaa !61
  call void @llvm.lifetime.start.p0(i64 8, ptr %11) #21
  store i64 0, ptr %11, align 8, !tbaa !61
  br label %16

16:                                               ; preds = %38, %4
  %17 = load i64, ptr %11, align 8, !tbaa !61
  %18 = load i64, ptr %10, align 8, !tbaa !61
  %19 = icmp ult i64 %17, %18
  br i1 %19, label %21, label %20

20:                                               ; preds = %16
  store i32 2, ptr %12, align 4
  br label %41

21:                                               ; preds = %16
  %22 = getelementptr inbounds nuw %"class.OpenColorIO_v2_5dev::FileRules::Impl", ptr %13, i32 0, i32 0
  %23 = load i64, ptr %11, align 8, !tbaa !61
  %24 = call noundef nonnull align 8 dereferenceable(16) ptr @_ZNKSt6vectorISt10shared_ptrIN19OpenColorIO_v2_5dev8FileRuleEESaIS3_EEixEm(ptr noundef nonnull align 8 dereferenceable(24) %22, i64 noundef %23) #21
  %25 = call noundef ptr @_ZNKSt19__shared_ptr_accessIN19OpenColorIO_v2_5dev8FileRuleELN9__gnu_cxx12_Lock_policyE2ELb0ELb0EEptEv(ptr noundef nonnull align 1 dereferenceable(1) %24) #21
  %26 = load ptr, ptr %7, align 8, !tbaa !74
  %27 = load ptr, ptr %8, align 8, !tbaa !25
  %28 = call noundef zeroext i1 @_ZNK19OpenColorIO_v2_5dev8FileRule7matchesERKNS_6ConfigEPKc(ptr noundef nonnull align 8 dereferenceable(212) %25, ptr noundef nonnull align 8 dereferenceable(8) %26, ptr noundef %27)
  br i1 %28, label %29, label %37

29:                                               ; preds = %21
  %30 = load i64, ptr %11, align 8, !tbaa !61
  %31 = load ptr, ptr %9, align 8, !tbaa !76
  store i64 %30, ptr %31, align 8, !tbaa !61
  %32 = getelementptr inbounds nuw %"class.OpenColorIO_v2_5dev::FileRules::Impl", ptr %13, i32 0, i32 0
  %33 = load i64, ptr %11, align 8, !tbaa !61
  %34 = call noundef nonnull align 8 dereferenceable(16) ptr @_ZNKSt6vectorISt10shared_ptrIN19OpenColorIO_v2_5dev8FileRuleEESaIS3_EEixEm(ptr noundef nonnull align 8 dereferenceable(24) %32, i64 noundef %33) #21
  %35 = call noundef ptr @_ZNKSt19__shared_ptr_accessIN19OpenColorIO_v2_5dev8FileRuleELN9__gnu_cxx12_Lock_policyE2ELb0ELb0EEptEv(ptr noundef nonnull align 1 dereferenceable(1) %34) #21
  %36 = call noundef ptr @_ZNK19OpenColorIO_v2_5dev8FileRule13getColorSpaceEv(ptr noundef nonnull align 8 dereferenceable(212) %35)
  store ptr %36, ptr %5, align 8
  store i32 1, ptr %12, align 4
  br label %41

37:                                               ; preds = %21
  br label %38

38:                                               ; preds = %37
  %39 = load i64, ptr %11, align 8, !tbaa !61
  %40 = add i64 %39, 1
  store i64 %40, ptr %11, align 8, !tbaa !61
  br label %16, !llvm.loop !78

41:                                               ; preds = %29, %20
  call void @llvm.lifetime.end.p0(i64 8, ptr %11) #21
  %42 = load i32, ptr %12, align 4
  switch i32 %42, label %48 [
    i32 2, label %43
  ]

43:                                               ; preds = %41
  %44 = getelementptr inbounds nuw %"class.OpenColorIO_v2_5dev::FileRules::Impl", ptr %13, i32 0, i32 0
  %45 = call noundef nonnull align 8 dereferenceable(16) ptr @_ZNKSt6vectorISt10shared_ptrIN19OpenColorIO_v2_5dev8FileRuleEESaIS3_EE4backEv(ptr noundef nonnull align 8 dereferenceable(24) %44) #21
  %46 = call noundef ptr @_ZNKSt19__shared_ptr_accessIN19OpenColorIO_v2_5dev8FileRuleELN9__gnu_cxx12_Lock_policyE2ELb0ELb0EEptEv(ptr noundef nonnull align 1 dereferenceable(1) %45) #21
  %47 = call noundef ptr @_ZNK19OpenColorIO_v2_5dev8FileRule13getColorSpaceEv(ptr noundef nonnull align 8 dereferenceable(212) %46)
  store ptr %47, ptr %5, align 8
  store i32 1, ptr %12, align 4
  br label %48

48:                                               ; preds = %43, %41
  call void @llvm.lifetime.end.p0(i64 8, ptr %10) #21
  %49 = load ptr, ptr %5, align 8
  ret ptr %49
}

; Function Attrs: mustprogress nounwind uwtable
define linkonce_odr hidden noundef i64 @_ZNKSt6vectorISt10shared_ptrIN19OpenColorIO_v2_5dev8FileRuleEESaIS3_EE4sizeEv(ptr noundef nonnull align 8 dereferenceable(24) %0) #3 comdat align 2 {
  %2 = alloca ptr, align 8
  store ptr %0, ptr %2, align 8, !tbaa !19
  %3 = load ptr, ptr %2, align 8
  %4 = getelementptr inbounds nuw %"struct.std::_Vector_base", ptr %3, i32 0, i32 0
  %5 = getelementptr inbounds nuw %"struct.std::_Vector_base<std::shared_ptr<OpenColorIO_v2_5dev::FileRule>, std::allocator<std::shared_ptr<OpenColorIO_v2_5dev::FileRule>>>::_Vector_impl_data", ptr %4, i32 0, i32 1
  %6 = load ptr, ptr %5, align 8, !tbaa !53
  %7 = getelementptr inbounds nuw %"struct.std::_Vector_base", ptr %3, i32 0, i32 0
  %8 = getelementptr inbounds nuw %"struct.std::_Vector_base<std::shared_ptr<OpenColorIO_v2_5dev::FileRule>, std::allocator<std::shared_ptr<OpenColorIO_v2_5dev::FileRule>>>::_Vector_impl_data", ptr %7, i32 0, i32 0
  %9 = load ptr, ptr %8, align 8, !tbaa !56
  %10 = ptrtoint ptr %6 to i64
  %11 = ptrtoint ptr %9 to i64
  %12 = sub i64 %10, %11
  %13 = sdiv exact i64 %12, 16
  ret i64 %13
}

; Function Attrs: mustprogress uwtable
define noundef ptr @_ZNK19OpenColorIO_v2_5dev9FileRules4Impl25getColorSpaceFromFilepathERKNS_6ConfigEPKcRm(ptr noundef nonnull align 8 dereferenceable(24) %0, ptr noundef nonnull align 8 dereferenceable(8) %1, ptr noundef %2, ptr noundef nonnull align 8 dereferenceable(8) %3) #0 align 2 {
  %5 = alloca ptr, align 8
  %6 = alloca ptr, align 8
  %7 = alloca ptr, align 8
  %8 = alloca ptr, align 8
  store ptr %0, ptr %5, align 8, !tbaa !13
  store ptr %1, ptr %6, align 8, !tbaa !74
  store ptr %2, ptr %7, align 8, !tbaa !25
  store ptr %3, ptr %8, align 8, !tbaa !76
  %9 = load ptr, ptr %5, align 8
  %10 = load ptr, ptr %6, align 8, !tbaa !74
  %11 = load ptr, ptr %7, align 8, !tbaa !25
  %12 = load ptr, ptr %8, align 8, !tbaa !76
  %13 = call noundef ptr @_ZNK19OpenColorIO_v2_5dev9FileRules4Impl19getRuleFromFilepathERKNS_6ConfigEPKcRm(ptr noundef nonnull align 8 dereferenceable(24) %9, ptr noundef nonnull align 8 dereferenceable(8) %10, ptr noundef %11, ptr noundef nonnull align 8 dereferenceable(8) %12)
  ret ptr %13
}

; Function Attrs: mustprogress uwtable
define noundef zeroext i1 @_ZNK19OpenColorIO_v2_5dev9FileRules4Impl30filepathOnlyMatchesDefaultRuleERKNS_6ConfigEPKc(ptr noundef nonnull align 8 dereferenceable(24) %0, ptr noundef nonnull align 8 dereferenceable(8) %1, ptr noundef %2) #0 align 2 {
  %4 = alloca ptr, align 8
  %5 = alloca ptr, align 8
  %6 = alloca ptr, align 8
  %7 = alloca i64, align 8
  store ptr %0, ptr %4, align 8, !tbaa !13
  store ptr %1, ptr %5, align 8, !tbaa !74
  store ptr %2, ptr %6, align 8, !tbaa !25
  %8 = load ptr, ptr %4, align 8
  call void @llvm.lifetime.start.p0(i64 8, ptr %7) #21
  store i64 0, ptr %7, align 8, !tbaa !61
  %9 = load ptr, ptr %5, align 8, !tbaa !74
  %10 = load ptr, ptr %6, align 8, !tbaa !25
  %11 = call noundef ptr @_ZNK19OpenColorIO_v2_5dev9FileRules4Impl25getColorSpaceFromFilepathERKNS_6ConfigEPKcRm(ptr noundef nonnull align 8 dereferenceable(24) %8, ptr noundef nonnull align 8 dereferenceable(8) %9, ptr noundef %10, ptr noundef nonnull align 8 dereferenceable(8) %7)
  %12 = load i64, ptr %7, align 8, !tbaa !61
  %13 = add i64 %12, 1
  %14 = getelementptr inbounds nuw %"class.OpenColorIO_v2_5dev::FileRules::Impl", ptr %8, i32 0, i32 0
  %15 = call noundef i64 @_ZNKSt6vectorISt10shared_ptrIN19OpenColorIO_v2_5dev8FileRuleEESaIS3_EE4sizeEv(ptr noundef nonnull align 8 dereferenceable(24) %14) #21
  %16 = icmp eq i64 %13, %15
  call void @llvm.lifetime.end.p0(i64 8, ptr %7) #21
  ret i1 %16
}