; Function Attrs: mustprogress uwtable
define noundef zeroext i1 @_ZNK19OpenColorIO_v2_5dev9FileRules4Impl30filepathOnlyMatchesDefaultRuleERKNS_6ConfigEPKc(ptr noundef nonnull readonly align 8 captures(none) dereferenceable(24) %0, ptr noundef nonnull align 8 dereferenceable(8) %1, ptr noundef %2) local_unnamed_addr #0 align 2 {
  %4 = getelementptr inbounds nuw i8, ptr %0, i64 8
  %5 = load ptr, ptr %4, align 8, !tbaa !14
  %6 = load ptr, ptr %0, align 8, !tbaa !11
  %.not15.not.i.i = icmp eq ptr %5, %6
  br i1 %.not15.not.i.i, label %_ZNK19OpenColorIO_v2_5dev9FileRules4Impl25getColorSpaceFromFilepathERKNS_6ConfigEPKcRm.exit, label %.lr.ph.preheader.i.i

.lr.ph.preheader.i.i:                             ; preds = %3
  %7 = ptrtoint ptr %5 to i64
  %8 = ptrtoint ptr %6 to i64
  %9 = sub i64 %7, %8
  %10 = ashr exact i64 %9, 4
  %umax.i.i = tail call i64 @llvm.umax.i64(i64 %10, i64 1)
  br label %.lr.ph.i.i

.lr.ph.i.i:                                       ; preds = %16, %.lr.ph.preheader.i.i
  %.01116.i.i = phi i64 [ %15, %16 ], [ 0, %.lr.ph.preheader.i.i ]
  %11 = load ptr, ptr %0, align 8, !tbaa !11
  %12 = getelementptr inbounds nuw %"class.std::shared_ptr.0", ptr %11, i64 %.01116.i.i
  %13 = load ptr, ptr %12, align 8, !tbaa !36
  %14 = tail call noundef zeroext i1 @_ZNK19OpenColorIO_v2_5dev8FileRule7matchesERKNS_6ConfigEPKc(ptr noundef nonnull align 8 dereferenceable(212) %13, ptr noundef nonnull align 8 dereferenceable(8) %1, ptr noundef %2)
  %15 = add i64 %.01116.i.i, 1
  br i1 %14, label %_ZNK19OpenColorIO_v2_5dev9FileRules4Impl25getColorSpaceFromFilepathERKNS_6ConfigEPKcRm.exit, label %16

16:                                               ; preds = %.lr.ph.i.i
  %exitcond.not.i.i = icmp eq i64 %15, %umax.i.i
  br i1 %exitcond.not.i.i, label %_ZNK19OpenColorIO_v2_5dev9FileRules4Impl25getColorSpaceFromFilepathERKNS_6ConfigEPKcRm.exit, label %.lr.ph.i.i, !llvm.loop !68

_ZNK19OpenColorIO_v2_5dev9FileRules4Impl25getColorSpaceFromFilepathERKNS_6ConfigEPKcRm.exit: ; preds = %16, %.lr.ph.i.i, %3
  %.0 = phi i64 [ 1, %3 ], [ 1, %16 ], [ %15, %.lr.ph.i.i ]
  %17 = load ptr, ptr %4, align 8, !tbaa !14
  %18 = load ptr, ptr %0, align 8, !tbaa !11
  %19 = ptrtoint ptr %17 to i64
  %20 = ptrtoint ptr %18 to i64
  %21 = sub i64 %19, %20
  %22 = ashr exact i64 %21, 4
  %23 = icmp eq i64 %.0, %22
  ret i1 %23
}